; Function Attrs: mustprogress nounwind uwtable
define hidden void @_ZNK30bytes_reversebit_long_gfniNode4emitEP17C2_MacroAssemblerP13PhaseRegAlloc(ptr noundef nonnull align 8 dereferenceable(112) %0, ptr noundef %1, ptr noundef %2) unnamed_addr #3 align 2 {
  %4 = getelementptr inbounds i8, ptr %0, i64 72
  %5 = load ptr, ptr %4, align 8
  %6 = load ptr, ptr %5, align 8
  %7 = getelementptr inbounds i8, ptr %6, i64 8
  %8 = load ptr, ptr %7, align 8
  %9 = tail call noundef i32 %8(ptr noundef nonnull align 8 dereferenceable(8) %5) #23
  %10 = add i32 %9, 1
  %11 = getelementptr inbounds i8, ptr %0, i64 80
  %12 = load ptr, ptr %11, align 8
  %13 = load ptr, ptr %12, align 8
  %14 = getelementptr inbounds i8, ptr %13, i64 8
  %15 = load ptr, ptr %14, align 8
  %16 = tail call noundef i32 %15(ptr noundef nonnull align 8 dereferenceable(8) %12) #23
  %17 = add i32 %16, %10
  %18 = getelementptr inbounds i8, ptr %0, i64 88
  %19 = load ptr, ptr %18, align 8
  %20 = load ptr, ptr %19, align 8
  %21 = getelementptr inbounds i8, ptr %20, i64 8
  %22 = load ptr, ptr %21, align 8
  %23 = tail call noundef i32 %22(ptr noundef nonnull align 8 dereferenceable(8) %19) #23
  %24 = add i32 %23, %17
  %25 = getelementptr inbounds i8, ptr %0, i64 96
  %26 = load ptr, ptr %25, align 8
  %27 = load ptr, ptr %26, align 8
  %28 = getelementptr inbounds i8, ptr %27, i64 8
  %29 = load ptr, ptr %28, align 8
  %30 = tail call noundef i32 %29(ptr noundef nonnull align 8 dereferenceable(8) %26) #23
  %31 = add i32 %30, %24
  %32 = load ptr, ptr %11, align 8
  %33 = load ptr, ptr %32, align 8
  %34 = getelementptr inbounds i8, ptr %33, i64 40
  %35 = load ptr, ptr %34, align 8
  %36 = tail call noundef i32 %35(ptr noundef nonnull align 8 dereferenceable(8) %32, ptr noundef %2, ptr noundef nonnull %0, i32 noundef %10) #23
  %or.cond.i.i = icmp ult i32 %36, 32
  %spec.select.i.i = select i1 %or.cond.i.i, i32 %36, i32 -1
  %37 = load ptr, ptr %4, align 8
  %38 = load ptr, ptr %37, align 8
  %39 = getelementptr inbounds i8, ptr %38, i64 40
  %40 = load ptr, ptr %39, align 8
  %41 = tail call noundef i32 %40(ptr noundef nonnull align 8 dereferenceable(8) %37, ptr noundef %2, ptr noundef nonnull %0, i32 noundef 1) #23
  %or.cond.i.i20 = icmp ult i32 %41, 32
  %spec.select.i.i21 = select i1 %or.cond.i.i20, i32 %41, i32 -1
  %42 = load ptr, ptr %18, align 8
  %43 = load ptr, ptr %42, align 8
  %44 = getelementptr inbounds i8, ptr %43, i64 40
  %45 = load ptr, ptr %44, align 8
  %46 = tail call noundef i32 %45(ptr noundef nonnull align 8 dereferenceable(8) %42, ptr noundef %2, ptr noundef nonnull %0, i32 noundef %17) #23
  %or.cond.i.i22 = icmp ult i32 %46, 32
  %spec.select.i.i23 = select i1 %or.cond.i.i22, i32 %46, i32 -1
  %47 = load ptr, ptr %25, align 8
  %48 = load ptr, ptr %47, align 8
  %49 = getelementptr inbounds i8, ptr %48, i64 40
  %50 = load ptr, ptr %49, align 8
  %51 = tail call noundef i32 %50(ptr noundef nonnull align 8 dereferenceable(8) %47, ptr noundef %2, ptr noundef nonnull %0, i32 noundef %24) #23
  %or.cond.i.i24 = icmp ult i32 %51, 32
  %spec.select.i.i25 = select i1 %or.cond.i.i24, i32 %51, i32 -1
  %52 = getelementptr inbounds i8, ptr %0, i64 104
  %53 = load ptr, ptr %52, align 8
  %54 = load ptr, ptr %53, align 8
  %55 = getelementptr inbounds i8, ptr %54, i64 40
  %56 = load ptr, ptr %55, align 8
  %57 = tail call noundef i32 %56(ptr noundef nonnull align 8 dereferenceable(8) %53, ptr noundef %2, ptr noundef nonnull %0, i32 noundef %31) #23
  %or.cond.i.i26 = icmp ult i32 %57, 32
  %spec.select.i.i27 = select i1 %or.cond.i.i26, i32 %57, i32 -1
  tail call void @_ZN17C2_MacroAssembler8reverseLE8RegisterS0_11XMMRegisterS1_S0_S0_(ptr noundef nonnull align 8 dereferenceable(40) %1, i32 %spec.select.i.i, i32 %spec.select.i.i21, i32 %spec.select.i.i23, i32 %spec.select.i.i25, i32 %spec.select.i.i27, i32 -1) #23
  ret void
}